target datalayout = "e-m:e-p270:32:32-p271:32:32-p272:64:64-i64:64-i128:128-f80:128-n8:16:32:64-S128"
target triple = "x86_64-pc-linux-gnu"

%"class.llvm::SmallVectorBase" = type { ptr, i32, i32 }
%"class.llvm::DenseSet.46" = type { %"class.llvm::detail::DenseSetImpl.47" }
%"class.llvm::detail::DenseSetImpl.47" = type { %"class.llvm::DenseMap.48" }
%"class.llvm::DenseMap.48" = type <{ ptr, i32, i32, i32, [4 x i8] }>
%"class.llvm::SmallVectorImpl.52" = type { %"class.llvm::SmallVectorTemplateBase.53" }
%"class.llvm::SmallVectorTemplateBase.53" = type { %"class.llvm::SmallVectorTemplateCommon.54" }
%"class.llvm::SmallVectorTemplateCommon.54" = type { %"class.llvm::SmallVectorBase" }
%"struct.llvm::BooleanState.base" = type { %"struct.llvm::IntegerStateBase.base" }
%"struct.llvm::IntegerStateBase.base" = type <{ %"struct.llvm::AbstractState", i8, i8 }>
%"struct.llvm::AbstractState" = type { ptr }
%"class.llvm::DenseSet.155" = type { %"class.llvm::detail::DenseSetImpl.156" }
%"class.llvm::detail::DenseSetImpl.156" = type { %"class.llvm::DenseMap.157" }
%"class.llvm::DenseMap.157" = type <{ ptr, i32, i32, i32, [4 x i8] }>
%"class.llvm::SmallVectorImpl.161" = type { %"class.llvm::SmallVectorTemplateBase.162" }
%"class.llvm::SmallVectorTemplateBase.162" = type { %"class.llvm::SmallVectorTemplateCommon.163" }
%"class.llvm::SmallVectorTemplateCommon.163" = type { %"class.llvm::SmallVectorBase" }
%"class.llvm::SetVector.281" = type { %"class.llvm::DenseSet.46", %"class.llvm::SmallVector.282" }
%"class.llvm::SmallVector.282" = type { %"class.llvm::SmallVectorImpl.52" }
%"class.llvm::SmallVectorImpl.234" = type { %"class.llvm::SmallVectorTemplateBase.235" }
%"class.llvm::SmallVectorTemplateBase.235" = type { %"class.llvm::SmallVectorTemplateCommon.236" }
%"class.llvm::SmallVectorTemplateCommon.236" = type { %"class.llvm::SmallVectorBase.237" }
%"class.llvm::SmallVectorBase.237" = type { ptr, i64, i64 }
%"class.llvm::SmallVectorImpl.604" = type { %"class.llvm::SmallVectorTemplateBase.605" }
%"class.llvm::SmallVectorTemplateBase.605" = type { %"class.llvm::SmallVectorTemplateCommon.606" }
%"class.llvm::SmallVectorTemplateCommon.606" = type { %"class.llvm::SmallVectorBase" }
%"struct.llvm::IntegerStateBase" = type <{ %"struct.llvm::AbstractState", i8, i8, [6 x i8] }>
%"struct.(anonymous namespace)::BooleanStateWithSetVector" = type { %"struct.llvm::BooleanState.base", %"class.llvm::SetVector.935" }
%"class.llvm::SetVector.935" = type { %"class.llvm::DenseSet.155", %"class.llvm::SmallVector.936" }
%"class.llvm::SmallVector.936" = type { %"class.llvm::SmallVectorImpl.161" }
%"struct.(anonymous namespace)::BooleanStateWithSetVector.938" = type { %"struct.llvm::BooleanState.base", %"class.llvm::SetVector.935" }
%"struct.(anonymous namespace)::BooleanStateWithSetVector.939" = type { %"struct.llvm::BooleanState.base", %"class.llvm::SetVector.940" }
%"class.llvm::SetVector.940" = type { %"class.llvm::DenseSet.941", %"class.llvm::SmallVector.946" }
%"class.llvm::DenseSet.941" = type { %"class.llvm::detail::DenseSetImpl.942" }
%"class.llvm::detail::DenseSetImpl.942" = type { %"class.llvm::DenseMap.943" }
%"class.llvm::DenseMap.943" = type <{ ptr, i32, i32, i32, [4 x i8] }>
%"class.llvm::SmallVector.946" = type { %"class.llvm::SmallVectorImpl.604" }
%"struct.(anonymous namespace)::BooleanStateWithSetVector.948" = type { %"struct.llvm::BooleanState.base", %"class.llvm::SetVector.281" }
%"struct.(anonymous namespace)::BooleanStateWithSetVector.949" = type { %"struct.llvm::BooleanState.base", %"class.llvm::SetVector.950" }
%"class.llvm::SetVector.950" = type { %"class.llvm::DenseSet.951", %"class.llvm::SmallVector.956" }
%"class.llvm::DenseSet.951" = type { %"class.llvm::detail::DenseSetImpl.952" }
%"class.llvm::detail::DenseSetImpl.952" = type { %"class.llvm::DenseMap.953" }
%"class.llvm::DenseMap.953" = type <{ ptr, i32, i32, i32, [4 x i8] }>
%"class.llvm::SmallVector.956" = type { %"class.llvm::SmallVectorImpl.234" }
%"struct.(anonymous namespace)::KernelInfoState" = type <{ %"struct.llvm::AbstractState", i8, [7 x i8], %"struct.(anonymous namespace)::BooleanStateWithSetVector", %"struct.(anonymous namespace)::BooleanStateWithSetVector.938", %"struct.(anonymous namespace)::BooleanStateWithSetVector.939", ptr, ptr, ptr, i8, [7 x i8], %"struct.(anonymous namespace)::BooleanStateWithSetVector.948", %"struct.(anonymous namespace)::BooleanStateWithSetVector.949", i8, [7 x i8] }>
%class.anon.1001 = type { ptr, ptr }

; Function Attrs: mustprogress nounwind uwtable
define linkonce_odr hidden noundef zeroext i1 @_ZN4llvm16IntegerStateBaseIbLb1ELb0EE13getWorstStateEv() #1 comdat align 2 {
  ret i1 false
}

; Function Attrs: mustprogress nounwind uwtable
define internal noundef zeroext i1 @_ZZN12_GLOBAL__N_120AAKernelInfoFunction10initializeERN4llvm10AttributorEENKUlS3_PKNS_12AAKernelInfoEPKNS1_17AbstractAttributeEE_clES3_S6_S9_(ptr noundef nonnull align 1 dereferenceable(1) %0, ptr noundef nonnull align 8 dereferenceable(4296) %1, ptr noundef %2, ptr noundef %3) #1 align 2 {
  %5 = alloca ptr, align 8
  %6 = alloca ptr, align 8
  %7 = alloca ptr, align 8
  %8 = alloca ptr, align 8
  store ptr %0, ptr %5, align 8
  store ptr %1, ptr %6, align 8
  store ptr %2, ptr %7, align 8
  store ptr %3, ptr %8, align 8
  %9 = load ptr, ptr %8, align 8
  %10 = icmp ne ptr %9, null
  br i1 %10, label %11, label %15

11:                                               ; preds = %4
  %12 = load ptr, ptr %6, align 8
  %13 = load ptr, ptr %7, align 8
  %14 = load ptr, ptr %8, align 8
  call void @_ZN4llvm10Attributor16recordDependenceERKNS_17AbstractAttributeES3_NS_10DepClassTyE(ptr noundef nonnull align 8 dereferenceable(4296) %12, ptr noundef nonnull align 8 dereferenceable(80) %13, ptr noundef nonnull align 8 dereferenceable(80) %14, i32 noundef 1)
  br label %15

15:                                               ; preds = %11, %4
  ret i1 true
}

; Function Attrs: mustprogress nounwind uwtable
define linkonce_odr hidden noundef zeroext i1 @_ZNK4llvm16IntegerStateBaseIbLb1ELb0EE12isValidStateEv(ptr noundef nonnull align 8 dereferenceable(10) %0) unnamed_addr #1 comdat align 2 {
  %2 = alloca ptr, align 8
  store ptr %0, ptr %2, align 8
  %3 = load ptr, ptr %2, align 8
  %4 = getelementptr inbounds nuw %"struct.llvm::IntegerStateBase", ptr %3, i32 0, i32 2
  %5 = load i8, ptr %4, align 1
  %6 = trunc i8 %5 to i1
  %7 = zext i1 %6 to i32
  %8 = call noundef zeroext i1 @_ZN4llvm16IntegerStateBaseIbLb1ELb0EE13getWorstStateEv()
  %9 = zext i1 %8 to i32
  %10 = icmp ne i32 %7, %9
  ret i1 %10
}

; Function Attrs: mustprogress nounwind uwtable
define internal noundef zeroext i1 @_ZZN12_GLOBAL__N_120AAKernelInfoFunction10initializeERN4llvm10AttributorEENKUlS3_PKNS1_17AbstractAttributeEE_clES3_S6_(ptr noundef nonnull align 8 dereferenceable(16) %0, ptr noundef nonnull align 8 dereferenceable(4296) %1, ptr noundef %2) #1 align 2 {
  %4 = alloca i1, align 1
  %5 = alloca ptr, align 8
  %6 = alloca ptr, align 8
  %7 = alloca ptr, align 8
  store ptr %0, ptr %5, align 8
  store ptr %1, ptr %6, align 8
  store ptr %2, ptr %7, align 8
  %8 = load ptr, ptr %5, align 8
  %9 = getelementptr inbounds nuw %class.anon.1001, ptr %8, i32 0, i32 0
  %10 = load ptr, ptr %9, align 8
  %11 = getelementptr inbounds i8, ptr %10, i64 80
  %12 = getelementptr inbounds nuw %"struct.(anonymous namespace)::KernelInfoState", ptr %11, i32 0, i32 5
  %13 = call noundef zeroext i1 @_ZNK4llvm16IntegerStateBaseIbLb1ELb0EE12isValidStateEv(ptr noundef nonnull align 8 dereferenceable(10) %12)
  br i1 %13, label %14, label %20

14:                                               ; preds = %3
  %15 = getelementptr inbounds nuw %class.anon.1001, ptr %8, i32 0, i32 1
  %16 = load ptr, ptr %15, align 8
  %17 = load ptr, ptr %6, align 8
  %18 = load ptr, ptr %7, align 8
  %19 = call noundef zeroext i1 @_ZZN12_GLOBAL__N_120AAKernelInfoFunction10initializeERN4llvm10AttributorEENKUlS3_PKNS_12AAKernelInfoEPKNS1_17AbstractAttributeEE_clES3_S6_S9_(ptr noundef nonnull align 1 dereferenceable(1) %16, ptr noundef nonnull align 8 dereferenceable(4296) %17, ptr noundef %10, ptr noundef %18)
  store i1 %19, ptr %4, align 1
  br label %31

20:                                               ; preds = %3
  %21 = getelementptr inbounds i8, ptr %10, i64 80
  %22 = getelementptr inbounds nuw %"struct.(anonymous namespace)::KernelInfoState", ptr %21, i32 0, i32 3
  %23 = call noundef zeroext i1 @_ZNK4llvm16IntegerStateBaseIbLb1ELb0EE12isValidStateEv(ptr noundef nonnull align 8 dereferenceable(10) %22)
  br i1 %23, label %30, label %24

24:                                               ; preds = %20
  %25 = getelementptr inbounds nuw %class.anon.1001, ptr %8, i32 0, i32 1
  %26 = load ptr, ptr %25, align 8
  %27 = load ptr, ptr %6, align 8
  %28 = load ptr, ptr %7, align 8
  %29 = call noundef zeroext i1 @_ZZN12_GLOBAL__N_120AAKernelInfoFunction10initializeERN4llvm10AttributorEENKUlS3_PKNS_12AAKernelInfoEPKNS1_17AbstractAttributeEE_clES3_S6_S9_(ptr noundef nonnull align 1 dereferenceable(1) %26, ptr noundef nonnull align 8 dereferenceable(4296) %27, ptr noundef %10, ptr noundef %28)
  store i1 %29, ptr %4, align 1
  br label %31

30:                                               ; preds = %20
  store i1 false, ptr %4, align 1
  br label %31

31:                                               ; preds = %30, %24, %14
  %32 = load i1, ptr %4, align 1
  ret i1 %32
}

; Function Attrs: mustprogress nounwind uwtable
define linkonce_odr hidden noundef ptr @_ZNKSt9_Any_data9_M_accessEv(ptr noundef nonnull align 8 dereferenceable(16) %0) #1 comdat align 2 {
  %2 = alloca ptr, align 8
  store ptr %0, ptr %2, align 8
  %3 = load ptr, ptr %2, align 8
  %4 = getelementptr inbounds [16 x i8], ptr %3, i64 0, i64 0
  ret ptr %4
}

; Function Attrs: mustprogress nounwind uwtable
define internal noundef zeroext i1 @_ZSt13__invoke_implIbRZN12_GLOBAL__N_120AAKernelInfoFunction10initializeERN4llvm10AttributorEEUlS4_PKNS2_17AbstractAttributeEE_JS4_S7_EET_St14__invoke_otherOT0_DpOT1_(ptr noundef nonnull align 8 dereferenceable(16) %0, ptr noundef nonnull align 8 dereferenceable(4296) %1, ptr noundef nonnull align 8 dereferenceable(8) %2) #1 {
  %4 = alloca ptr, align 8
  %5 = alloca ptr, align 8
  %6 = alloca ptr, align 8
  store ptr %0, ptr %4, align 8
  store ptr %1, ptr %5, align 8
  store ptr %2, ptr %6, align 8
  %7 = load ptr, ptr %4, align 8
  %8 = load ptr, ptr %5, align 8
  %9 = load ptr, ptr %6, align 8
  %10 = load ptr, ptr %9, align 8
  %11 = call noundef zeroext i1 @_ZZN12_GLOBAL__N_120AAKernelInfoFunction10initializeERN4llvm10AttributorEENKUlS3_PKNS1_17AbstractAttributeEE_clES3_S6_(ptr noundef nonnull align 8 dereferenceable(16) %7, ptr noundef nonnull align 8 dereferenceable(4296) %8, ptr noundef %10)
  ret i1 %11
}

; Function Attrs: mustprogress nounwind uwtable
define internal noundef nonnull align 8 dereferenceable(16) ptr @_ZNKSt9_Any_data9_M_accessIZN12_GLOBAL__N_120AAKernelInfoFunction10initializeERN4llvm10AttributorEEUlS5_PKNS3_17AbstractAttributeEE_EERKT_v(ptr noundef nonnull align 8 dereferenceable(16) %0) #1 align 2 {
  %2 = alloca ptr, align 8
  store ptr %0, ptr %2, align 8
  %3 = load ptr, ptr %2, align 8
  %4 = call noundef ptr @_ZNKSt9_Any_data9_M_accessEv(ptr noundef nonnull align 8 dereferenceable(16) %3) #2
  ret ptr %4
}

; Function Attrs: mustprogress nounwind uwtable
define internal noundef zeroext i1 @_ZSt10__invoke_rIbRZN12_GLOBAL__N_120AAKernelInfoFunction10initializeERN4llvm10AttributorEEUlS4_PKNS2_17AbstractAttributeEE_JS4_S7_EENSt9enable_ifIX16is_invocable_r_vIT_T0_DpT1_EESB_E4typeEOSC_DpOSD_(ptr noundef nonnull align 8 dereferenceable(16) %0, ptr noundef nonnull align 8 dereferenceable(4296) %1, ptr noundef nonnull align 8 dereferenceable(8) %2) #1 {
  %4 = alloca ptr, align 8
  %5 = alloca ptr, align 8
  %6 = alloca ptr, align 8
  store ptr %0, ptr %4, align 8
  store ptr %1, ptr %5, align 8
  store ptr %2, ptr %6, align 8
  %7 = load ptr, ptr %4, align 8
  %8 = load ptr, ptr %5, align 8
  %9 = load ptr, ptr %6, align 8
  %10 = call noundef zeroext i1 @_ZSt13__invoke_implIbRZN12_GLOBAL__N_120AAKernelInfoFunction10initializeERN4llvm10AttributorEEUlS4_PKNS2_17AbstractAttributeEE_JS4_S7_EET_St14__invoke_otherOT0_DpOT1_(ptr noundef nonnull align 8 dereferenceable(16) %7, ptr noundef nonnull align 8 dereferenceable(4296) %8, ptr noundef nonnull align 8 dereferenceable(8) %9)
  ret i1 %10
}

; Function Attrs: mustprogress nounwind uwtable
define internal noundef ptr @_ZNSt14_Function_base13_Base_managerIZN12_GLOBAL__N_120AAKernelInfoFunction10initializeERN4llvm10AttributorEEUlS5_PKNS3_17AbstractAttributeEE_E14_M_get_pointerERKSt9_Any_data(ptr noundef nonnull align 8 dereferenceable(16) %0) #1 align 2 {
  %2 = alloca ptr, align 8
  %3 = alloca ptr, align 8
  store ptr %0, ptr %2, align 8
  %4 = load ptr, ptr %2, align 8
  %5 = call noundef nonnull align 8 dereferenceable(16) ptr @_ZNKSt9_Any_data9_M_accessIZN12_GLOBAL__N_120AAKernelInfoFunction10initializeERN4llvm10AttributorEEUlS5_PKNS3_17AbstractAttributeEE_EERKT_v(ptr noundef nonnull align 8 dereferenceable(16) %4) #2
  store ptr %5, ptr %3, align 8
  %6 = load ptr, ptr %3, align 8
  ret ptr %6
}

; Function Attrs: mustprogress nounwind uwtable
define internal noundef zeroext i1 @_ZNSt17_Function_handlerIFbRN4llvm10AttributorEPKNS0_17AbstractAttributeEEZN12_GLOBAL__N_120AAKernelInfoFunction10initializeES2_EUlS2_S5_E_E9_M_invokeERKSt9_Any_dataS2_OS5_(ptr noundef nonnull align 8 dereferenceable(16) %0, ptr noundef nonnull align 8 dereferenceable(4296) %1, ptr noundef nonnull align 8 dereferenceable(8) %2) #1 align 2 {
  %4 = alloca ptr, align 8
  %5 = alloca ptr, align 8
  %6 = alloca ptr, align 8
  store ptr %0, ptr %4, align 8
  store ptr %1, ptr %5, align 8
  store ptr %2, ptr %6, align 8
  %7 = load ptr, ptr %4, align 8
  %8 = call noundef ptr @_ZNSt14_Function_base13_Base_managerIZN12_GLOBAL__N_120AAKernelInfoFunction10initializeERN4llvm10AttributorEEUlS5_PKNS3_17AbstractAttributeEE_E14_M_get_pointerERKSt9_Any_data(ptr noundef nonnull align 8 dereferenceable(16) %7) #2
  %9 = load ptr, ptr %5, align 8
  %10 = load ptr, ptr %6, align 8
  %11 = call noundef zeroext i1 @_ZSt10__invoke_rIbRZN12_GLOBAL__N_120AAKernelInfoFunction10initializeERN4llvm10AttributorEEUlS4_PKNS2_17AbstractAttributeEE_JS4_S7_EENSt9enable_ifIX16is_invocable_r_vIT_T0_DpT1_EESB_E4typeEOSC_DpOSD_(ptr noundef nonnull align 8 dereferenceable(16) %8, ptr noundef nonnull align 8 dereferenceable(4296) %9, ptr noundef nonnull align 8 dereferenceable(8) %10)
  ret i1 %11
}