; Function Attrs: mustprogress nounwind uwtable
define internal noundef zeroext i1 @_ZNSt17_Function_handlerIFbRN4llvm10AttributorEPKNS0_17AbstractAttributeEEZN12_GLOBAL__N_120AAKernelInfoFunction10initializeES2_EUlS2_S5_E_E9_M_invokeERKSt9_Any_dataS2_OS5_(ptr nocapture noundef nonnull readonly align 8 dereferenceable(16) %0, ptr noundef nonnull align 8 dereferenceable(4296) %1, ptr nocapture noundef nonnull readonly align 8 dereferenceable(8) %2) #0 align 2 {
  %.val = load ptr, ptr %0, align 8
  %.val3 = load ptr, ptr %2, align 8
  %4 = getelementptr inbounds i8, ptr %.val, i64 217
  %5 = load i8, ptr %4, align 1
  %6 = trunc i8 %5 to i1
  br i1 %6, label %7, label %8

7:                                                ; preds = %3
  %.not.i.i.i.i = icmp eq ptr %.val3, null
  br i1 %.not.i.i.i.i, label %_ZSt10__invoke_rIbRZN12_GLOBAL__N_120AAKernelInfoFunction10initializeERN4llvm10AttributorEEUlS4_PKNS2_17AbstractAttributeEE_JS4_S7_EENSt9enable_ifIX16is_invocable_r_vIT_T0_DpT1_EESB_E4typeEOSC_DpOSD_.exit, label %_ZZN12_GLOBAL__N_120AAKernelInfoFunction10initializeERN4llvm10AttributorEENKUlS3_PKNS_12AAKernelInfoEPKNS1_17AbstractAttributeEE_clES3_S6_S9_.exit.sink.split.i.i.i

8:                                                ; preds = %3
  %9 = getelementptr inbounds i8, ptr %.val, i64 105
  %10 = load i8, ptr %9, align 1
  %11 = trunc i8 %10 to i1
  br i1 %11, label %_ZSt10__invoke_rIbRZN12_GLOBAL__N_120AAKernelInfoFunction10initializeERN4llvm10AttributorEEUlS4_PKNS2_17AbstractAttributeEE_JS4_S7_EENSt9enable_ifIX16is_invocable_r_vIT_T0_DpT1_EESB_E4typeEOSC_DpOSD_.exit, label %12

12:                                               ; preds = %8
  %.not.i6.i.i.i = icmp eq ptr %.val3, null
  br i1 %.not.i6.i.i.i, label %_ZSt10__invoke_rIbRZN12_GLOBAL__N_120AAKernelInfoFunction10initializeERN4llvm10AttributorEEUlS4_PKNS2_17AbstractAttributeEE_JS4_S7_EENSt9enable_ifIX16is_invocable_r_vIT_T0_DpT1_EESB_E4typeEOSC_DpOSD_.exit, label %_ZZN12_GLOBAL__N_120AAKernelInfoFunction10initializeERN4llvm10AttributorEENKUlS3_PKNS_12AAKernelInfoEPKNS1_17AbstractAttributeEE_clES3_S6_S9_.exit.sink.split.i.i.i

_ZZN12_GLOBAL__N_120AAKernelInfoFunction10initializeERN4llvm10AttributorEENKUlS3_PKNS_12AAKernelInfoEPKNS1_17AbstractAttributeEE_clES3_S6_S9_.exit.sink.split.i.i.i: ; preds = %12, %7
  tail call void @_ZN4llvm10Attributor16recordDependenceERKNS_17AbstractAttributeES3_NS_10DepClassTyE(ptr noundef nonnull align 8 dereferenceable(4296) %1, ptr noundef nonnull align 8 dereferenceable(80) %.val, ptr noundef nonnull align 8 dereferenceable(80) %.val3, i32 noundef 1) #26
  br label %_ZSt10__invoke_rIbRZN12_GLOBAL__N_120AAKernelInfoFunction10initializeERN4llvm10AttributorEEUlS4_PKNS2_17AbstractAttributeEE_JS4_S7_EENSt9enable_ifIX16is_invocable_r_vIT_T0_DpT1_EESB_E4typeEOSC_DpOSD_.exit

_ZSt10__invoke_rIbRZN12_GLOBAL__N_120AAKernelInfoFunction10initializeERN4llvm10AttributorEEUlS4_PKNS2_17AbstractAttributeEE_JS4_S7_EENSt9enable_ifIX16is_invocable_r_vIT_T0_DpT1_EESB_E4typeEOSC_DpOSD_.exit: ; preds = %7, %8, %12, %_ZZN12_GLOBAL__N_120AAKernelInfoFunction10initializeERN4llvm10AttributorEENKUlS3_PKNS_12AAKernelInfoEPKNS1_17AbstractAttributeEE_clES3_S6_S9_.exit.sink.split.i.i.i
  %.0.i.i.i = phi i1 [ false, %8 ], [ true, %7 ], [ true, %12 ], [ true, %_ZZN12_GLOBAL__N_120AAKernelInfoFunction10initializeERN4llvm10AttributorEENKUlS3_PKNS_12AAKernelInfoEPKNS1_17AbstractAttributeEE_clES3_S6_S9_.exit.sink.split.i.i.i ]
  ret i1 %.0.i.i.i
}